target datalayout = "e-m:e-p270:32:32-p271:32:32-p272:64:64-i64:64-i128:128-f80:128-n8:16:32:64-S128"
target triple = "x86_64-pc-linux-gnu"

%"class.std::shared_ptr" = type { %"class.std::__shared_ptr" }
%"class.std::__shared_ptr" = type { ptr, %"class.std::__shared_count" }
%"class.std::__shared_count" = type { ptr }
%"class.std::set" = type { %"class.std::_Rb_tree" }
%"class.std::_Rb_tree" = type { %"struct.std::_Rb_tree<(anonymous namespace)::Node *, (anonymous namespace)::Node *, std::_Identity<(anonymous namespace)::Node *>, (anonymous namespace)::CmpNodePos>::_Rb_tree_impl" }
%"struct.std::_Rb_tree<(anonymous namespace)::Node *, (anonymous namespace)::Node *, std::_Identity<(anonymous namespace)::Node *>, (anonymous namespace)::CmpNodePos>::_Rb_tree_impl" = type { [8 x i8], %"struct.std::_Rb_tree_header" }
%"struct.std::_Rb_tree_header" = type { %"struct.std::_Rb_tree_node_base", i64 }
%"struct.std::_Rb_tree_node_base" = type { i32, ptr, ptr, ptr }
%struct.Event = type { i32, %"class.std::shared_ptr", double }
%"struct.(anonymous namespace)::Node" = type { ptr, ptr, double, ptr, ptr, %"class.std::set", %"class.std::set" }

; Function Attrs: mustprogress nounwind uwtable
define internal noundef ptr @_ZNKSt12__shared_ptrIN12_GLOBAL__N_14NodeELN9__gnu_cxx12_Lock_policyE2EE3getEv(ptr noundef nonnull align 8 dereferenceable(16) %0) #6 align 2 {
  %2 = alloca ptr, align 8
  store ptr %0, ptr %2, align 8, !tbaa !105
  %3 = load ptr, ptr %2, align 8
  %4 = getelementptr inbounds nuw %"class.std::__shared_ptr", ptr %3, i32 0, i32 0
  %5 = load ptr, ptr %4, align 8, !tbaa !107
  ret ptr %5
}

; Function Attrs: mustprogress nounwind uwtable
define internal noundef ptr @_ZNKSt19__shared_ptr_accessIN12_GLOBAL__N_14NodeELN9__gnu_cxx12_Lock_policyE2ELb0ELb0EE6_M_getEv(ptr noundef nonnull align 1 dereferenceable(1) %0) #6 align 2 {
  %2 = alloca ptr, align 8
  store ptr %0, ptr %2, align 8, !tbaa !144
  %3 = load ptr, ptr %2, align 8
  %4 = call noundef ptr @_ZNKSt12__shared_ptrIN12_GLOBAL__N_14NodeELN9__gnu_cxx12_Lock_policyE2EE3getEv(ptr noundef nonnull align 8 dereferenceable(16) %3) #3
  ret ptr %4
}

; Function Attrs: mustprogress nounwind uwtable
define internal noundef ptr @_ZNKSt19__shared_ptr_accessIN12_GLOBAL__N_14NodeELN9__gnu_cxx12_Lock_policyE2ELb0ELb0EEptEv(ptr noundef nonnull align 1 dereferenceable(1) %0) #6 align 2 {
  %2 = alloca ptr, align 8
  store ptr %0, ptr %2, align 8, !tbaa !144
  %3 = load ptr, ptr %2, align 8
  %4 = call noundef ptr @_ZNKSt19__shared_ptr_accessIN12_GLOBAL__N_14NodeELN9__gnu_cxx12_Lock_policyE2ELb0ELb0EE6_M_getEv(ptr noundef nonnull align 1 dereferenceable(1) %3) #3
  ret ptr %4
}

; Function Attrs: mustprogress nounwind uwtable
define internal noundef zeroext i1 @_ZL14compare_eventsRK5EventS1_(ptr noundef nonnull align 8 dereferenceable(32) %0, ptr noundef nonnull align 8 dereferenceable(32) %1) #6 {
  %3 = alloca i1, align 1
  %4 = alloca ptr, align 8
  %5 = alloca ptr, align 8
  store ptr %0, ptr %4, align 8, !tbaa !48
  store ptr %1, ptr %5, align 8, !tbaa !48
  %6 = load ptr, ptr %4, align 8, !tbaa !48
  %7 = getelementptr inbounds nuw %struct.Event, ptr %6, i32 0, i32 1
  %8 = call noundef ptr @_ZNKSt19__shared_ptr_accessIN12_GLOBAL__N_14NodeELN9__gnu_cxx12_Lock_policyE2ELb0ELb0EEptEv(ptr noundef nonnull align 1 dereferenceable(1) %7) #3
  %9 = getelementptr inbounds nuw %"struct.(anonymous namespace)::Node", ptr %8, i32 0, i32 1
  %10 = load ptr, ptr %9, align 8, !tbaa !76
  %11 = load ptr, ptr %5, align 8, !tbaa !48
  %12 = getelementptr inbounds nuw %struct.Event, ptr %11, i32 0, i32 1
  %13 = call noundef ptr @_ZNKSt19__shared_ptr_accessIN12_GLOBAL__N_14NodeELN9__gnu_cxx12_Lock_policyE2ELb0ELb0EEptEv(ptr noundef nonnull align 1 dereferenceable(1) %12) #3
  %14 = getelementptr inbounds nuw %"struct.(anonymous namespace)::Node", ptr %13, i32 0, i32 1
  %15 = load ptr, ptr %14, align 8, !tbaa !76
  %16 = icmp eq ptr %10, %15
  br i1 %16, label %17, label %29

17:                                               ; preds = %2
  %18 = load ptr, ptr %4, align 8, !tbaa !48
  %19 = getelementptr inbounds nuw %struct.Event, ptr %18, i32 0, i32 0
  %20 = load i32, ptr %19, align 8, !tbaa !52
  %21 = icmp eq i32 %20, 0
  br i1 %21, label %22, label %28

22:                                               ; preds = %17
  %23 = load ptr, ptr %5, align 8, !tbaa !48
  %24 = getelementptr inbounds nuw %struct.Event, ptr %23, i32 0, i32 0
  %25 = load i32, ptr %24, align 8, !tbaa !52
  %26 = icmp ne i32 %25, 0
  br i1 %26, label %27, label %28

27:                                               ; preds = %22
  store i1 true, ptr %3, align 1
  br label %50

28:                                               ; preds = %22, %17
  store i1 false, ptr %3, align 1
  br label %50

29:                                               ; preds = %2
  %30 = load ptr, ptr %4, align 8, !tbaa !48
  %31 = getelementptr inbounds nuw %struct.Event, ptr %30, i32 0, i32 2
  %32 = load double, ptr %31, align 8, !tbaa !98
  %33 = load ptr, ptr %5, align 8, !tbaa !48
  %34 = getelementptr inbounds nuw %struct.Event, ptr %33, i32 0, i32 2
  %35 = load double, ptr %34, align 8, !tbaa !98
  %36 = fcmp ogt double %32, %35
  br i1 %36, label %37, label %38

37:                                               ; preds = %29
  store i1 false, ptr %3, align 1
  br label %50

38:                                               ; preds = %29
  %39 = load ptr, ptr %4, align 8, !tbaa !48
  %40 = getelementptr inbounds nuw %struct.Event, ptr %39, i32 0, i32 2
  %41 = load double, ptr %40, align 8, !tbaa !98
  %42 = load ptr, ptr %5, align 8, !tbaa !48
  %43 = getelementptr inbounds nuw %struct.Event, ptr %42, i32 0, i32 2
  %44 = load double, ptr %43, align 8, !tbaa !98
  %45 = fcmp olt double %41, %44
  br i1 %45, label %46, label %47

46:                                               ; preds = %38
  store i1 true, ptr %3, align 1
  br label %50

47:                                               ; preds = %38
  br label %48

48:                                               ; preds = %47
  br label %49

49:                                               ; preds = %48
  store i1 false, ptr %3, align 1
  br label %50

50:                                               ; preds = %49, %46, %37, %28, %27
  %51 = load i1, ptr %3, align 1
  ret i1 %51
}