; Function Attrs: mustprogress nofree norecurse nosync nounwind willreturn memory(read, inaccessiblemem: none) uwtable
define internal noundef zeroext i1 @_ZL14compare_eventsRK5EventS1_(ptr noundef nonnull readonly align 8 captures(none) dereferenceable(32) %0, ptr noundef nonnull readonly align 8 captures(none) dereferenceable(32) %1) #6 {
  %3 = getelementptr inbounds nuw i8, ptr %0, i64 8
  %.val = load ptr, ptr %3, align 8, !tbaa !68
  %4 = getelementptr inbounds nuw i8, ptr %.val, i64 8
  %5 = load ptr, ptr %4, align 8, !tbaa !82
  %6 = getelementptr inbounds nuw i8, ptr %1, i64 8
  %.val11 = load ptr, ptr %6, align 8, !tbaa !68
  %7 = getelementptr inbounds nuw i8, ptr %.val11, i64 8
  %8 = load ptr, ptr %7, align 8, !tbaa !82
  %9 = icmp eq ptr %5, %8
  br i1 %9, label %10, label %14

10:                                               ; preds = %2
  %11 = load i32, ptr %0, align 8, !tbaa !72
  %12 = icmp eq i32 %11, 0
  %13 = load i32, ptr %1, align 8
  %.not = icmp ne i32 %13, 0
  %or.cond.not = select i1 %12, i1 %.not, i1 false
  br label %22

14:                                               ; preds = %2
  %15 = getelementptr inbounds nuw i8, ptr %0, i64 24
  %16 = load double, ptr %15, align 8, !tbaa !101
  %17 = getelementptr inbounds nuw i8, ptr %1, i64 24
  %18 = load double, ptr %17, align 8, !tbaa !101
  %19 = fcmp ogt double %16, %18
  br i1 %19, label %22, label %20

20:                                               ; preds = %14
  %21 = fcmp olt double %16, %18
  br label %22

22:                                               ; preds = %10, %20, %14
  %.0 = phi i1 [ false, %14 ], [ %21, %20 ], [ %or.cond.not, %10 ]
  ret i1 %.0
}